target datalayout = "e-m:e-p270:32:32-p271:32:32-p272:64:64-i64:64-i128:128-f80:128-n8:16:32:64-S128"
target triple = "x86_64-pc-linux-gnu"

%"class.base::Pickle" = type { ptr, ptr, i64, i64, i64 }

; Function Attrs: mustprogress nounwind uwtable
define noundef i64 @_ZNK4base6Pickle21GetTotalAllocatedSizeEv(ptr noundef nonnull align 8 dereferenceable(40) %0) #2 align 2 {
  %2 = alloca i64, align 8
  %3 = alloca ptr, align 8
  store ptr %0, ptr %3, align 8, !tbaa !21
  %4 = load ptr, ptr %3, align 8
  %5 = getelementptr inbounds nuw %"class.base::Pickle", ptr %4, i32 0, i32 3
  %6 = load i64, ptr %5, align 8, !tbaa !79
  %7 = icmp eq i64 %6, -1
  br i1 %7, label %8, label %9

8:                                                ; preds = %1
  store i64 0, ptr %2, align 8
  br label %15

9:                                                ; preds = %1
  %10 = getelementptr inbounds nuw %"class.base::Pickle", ptr %4, i32 0, i32 2
  %11 = load i64, ptr %10, align 8, !tbaa !35
  %12 = getelementptr inbounds nuw %"class.base::Pickle", ptr %4, i32 0, i32 3
  %13 = load i64, ptr %12, align 8, !tbaa !79
  %14 = add i64 %11, %13
  store i64 %14, ptr %2, align 8
  br label %15

15:                                               ; preds = %9, %8
  %16 = load i64, ptr %2, align 8
  ret i64 %16
}